; Function Attrs: mustprogress uwtable
define internal fastcc noundef i64 @"_ZNO8pybind116detail15argument_loaderIJNS_3strEEE4callImNS0_9void_typeERZ22test_submodule_pytypesRNS_7module_EE4$_95EENSt9enable_ifIXntsr3std7is_voidIT_EE5valueESB_E4typeEOT1_"(ptr nocapture noundef nonnull align 8 dereferenceable(8) %0) unnamed_addr #1 align 2 personality ptr @__gxx_personality_v0 {
  %2 = alloca %"class.pybind11::str", align 8
  call void @llvm.lifetime.start.p0(i64 8, ptr nonnull %2)
  %3 = load i64, ptr %0, align 8
  store i64 %3, ptr %2, align 8
  store ptr null, ptr %0, align 8
  %.val.cast.i = inttoptr i64 %3 to ptr
  %4 = invoke i64 @PyObject_Size(ptr noundef %.val.cast.i)
          to label %.noexc.i unwind label %18

.noexc.i:                                         ; preds = %1
  %5 = icmp slt i64 %4, 0
  br i1 %5, label %6, label %"_ZZ22test_submodule_pytypesRN8pybind117module_EENK4$_95clENS_3strE.exit.i"

6:                                                ; preds = %.noexc.i
  %7 = tail call ptr @__cxa_allocate_exception(i64 24) #25
  invoke void @_ZN8pybind1117error_already_setC2Ev(ptr noundef nonnull align 8 dereferenceable(24) %7)
          to label %8 unwind label %9

8:                                                ; preds = %6
  invoke void @__cxa_throw(ptr nonnull %7, ptr nonnull @_ZTIN8pybind1117error_already_setE, ptr nonnull @_ZN8pybind1117error_already_setD2Ev) #30
          to label %.noexc3.i unwind label %18

.noexc3.i:                                        ; preds = %8
  unreachable

9:                                                ; preds = %6
  %10 = landingpad { ptr, i32 }
          cleanup
  tail call void @__cxa_free_exception(ptr %7) #25
  br label %.body.i

"_ZZ22test_submodule_pytypesRN8pybind117module_EENK4$_95clENS_3strE.exit.i": ; preds = %.noexc.i
  %.not.i.i.i.i.i = icmp eq i64 %3, 0
  br i1 %.not.i.i.i.i.i, label %"_ZNO8pybind116detail15argument_loaderIJNS_3strEEE9call_implImRZ22test_submodule_pytypesRNS_7module_EE4$_95JLm0EENS0_9void_typeEEET_OT0_St16integer_sequenceImJXspT1_EEEOT2_.exit", label %11

11:                                               ; preds = %"_ZZ22test_submodule_pytypesRN8pybind117module_EENK4$_95clENS_3strE.exit.i"
  %12 = load i64, ptr %.val.cast.i, align 8
  %13 = add nsw i64 %12, -1
  store i64 %13, ptr %.val.cast.i, align 8
  %.not.i.i.i.i.i.i = icmp eq i64 %13, 0
  br i1 %.not.i.i.i.i.i.i, label %14, label %"_ZNO8pybind116detail15argument_loaderIJNS_3strEEE9call_implImRZ22test_submodule_pytypesRNS_7module_EE4$_95JLm0EENS0_9void_typeEEET_OT0_St16integer_sequenceImJXspT1_EEEOT2_.exit"

14:                                               ; preds = %11
  invoke void @_Py_Dealloc(ptr noundef nonnull %.val.cast.i)
          to label %"_ZNO8pybind116detail15argument_loaderIJNS_3strEEE9call_implImRZ22test_submodule_pytypesRNS_7module_EE4$_95JLm0EENS0_9void_typeEEET_OT0_St16integer_sequenceImJXspT1_EEEOT2_.exit" unwind label %15

15:                                               ; preds = %14
  %16 = landingpad { ptr, i32 }
          catch ptr null
  %17 = extractvalue { ptr, i32 } %16, 0
  tail call void @__clang_call_terminate(ptr %17) #26
  unreachable

18:                                               ; preds = %8, %1
  %19 = landingpad { ptr, i32 }
          cleanup
  br label %.body.i

.body.i:                                          ; preds = %18, %9
  %eh.lpad-body.i = phi { ptr, i32 } [ %19, %18 ], [ %10, %9 ]
  call void @_ZN8pybind113strD2Ev(ptr noundef nonnull align 8 dereferenceable(8) %2) #25
  resume { ptr, i32 } %eh.lpad-body.i

"_ZNO8pybind116detail15argument_loaderIJNS_3strEEE9call_implImRZ22test_submodule_pytypesRNS_7module_EE4$_95JLm0EENS0_9void_typeEEET_OT0_St16integer_sequenceImJXspT1_EEEOT2_.exit": ; preds = %"_ZZ22test_submodule_pytypesRN8pybind117module_EENK4$_95clENS_3strE.exit.i", %11, %14
  call void @llvm.lifetime.end.p0(i64 8, ptr nonnull %2)
  ret i64 %4
}